(dp1
S'/C=dk/ST=dk/L=NA/O=org/OU=NA/CN=devuser/emailAddress=dev@dev.dk'
p2
(dp3
S'comment'
p4
S'foo'
p5
sS'openid_names'
p6
(lp7
S'dev@dev.dk'
p8
asS'locality'
p9
S''
sS'distinguished_name'
p10
g2
sS'country'
p11
S'dk'
p12
sS'state'
p13
S'dk'
p14
sS'expire'
p15
I1574594737
sS'organizational_unit'
p16
S''
sS'full_name'
p17
S'devuser'
p18
sS'organization'
p19
S'org'
p20
sS'password'
p21
S'UGFzc3cwcmQxMjM='
p22
sS'email'
p23
g8
ss.